target datalayout = "e-m:e-p270:32:32-p271:32:32-p272:64:64-i64:64-i128:128-f80:128-n8:16:32:64-S128"
target triple = "x86_64-unknown-linux-gnu"

; Function Attrs: mustprogress nounwind uwtable
define internal noundef zeroext i8 @_ZN4llvhL11isLegalUTF8EPKhi(ptr noundef %source, i32 noundef %length) #0 {
entry:
  %retval = alloca i8, align 1
  %source.addr = alloca ptr, align 8
  %length.addr = alloca i32, align 4
  %a = alloca i8, align 1
  %srcptr = alloca ptr, align 8
  store ptr %source, ptr %source.addr, align 8
  store i32 %length, ptr %length.addr, align 4
  %0 = load ptr, ptr %source.addr, align 8
  %1 = load i32, ptr %length.addr, align 4
  %idx.ext = sext i32 %1 to i64
  %add.ptr = getelementptr inbounds i8, ptr %0, i64 %idx.ext
  store ptr %add.ptr, ptr %srcptr, align 8
  %2 = load i32, ptr %length.addr, align 4
  switch i32 %2, label %sw.default [
    i32 4, label %sw.bb
    i32 3, label %sw.bb3
    i32 2, label %sw.bb12
    i32 1, label %sw.bb47
  ]

sw.default:                                       ; preds = %entry
  store i8 0, ptr %retval, align 1
  br label %return

sw.bb:                                            ; preds = %entry
  %3 = load ptr, ptr %srcptr, align 8
  %incdec.ptr = getelementptr inbounds i8, ptr %3, i32 -1
  store ptr %incdec.ptr, ptr %srcptr, align 8
  %4 = load i8, ptr %incdec.ptr, align 1
  store i8 %4, ptr %a, align 1
  %conv = zext i8 %4 to i32
  %cmp = icmp slt i32 %conv, 128
  br i1 %cmp, label %if.then, label %lor.lhs.false

lor.lhs.false:                                    ; preds = %sw.bb
  %5 = load i8, ptr %a, align 1
  %conv1 = zext i8 %5 to i32
  %cmp2 = icmp sgt i32 %conv1, 191
  br i1 %cmp2, label %if.then, label %if.end

if.then:                                          ; preds = %lor.lhs.false, %sw.bb
  store i8 0, ptr %retval, align 1
  br label %return

if.end:                                           ; preds = %lor.lhs.false
  br label %sw.bb3

sw.bb3:                                           ; preds = %if.end, %entry
  %6 = load ptr, ptr %srcptr, align 8
  %incdec.ptr4 = getelementptr inbounds i8, ptr %6, i32 -1
  store ptr %incdec.ptr4, ptr %srcptr, align 8
  %7 = load i8, ptr %incdec.ptr4, align 1
  store i8 %7, ptr %a, align 1
  %conv5 = zext i8 %7 to i32
  %cmp6 = icmp slt i32 %conv5, 128
  br i1 %cmp6, label %if.then10, label %lor.lhs.false7

lor.lhs.false7:                                   ; preds = %sw.bb3
  %8 = load i8, ptr %a, align 1
  %conv8 = zext i8 %8 to i32
  %cmp9 = icmp sgt i32 %conv8, 191
  br i1 %cmp9, label %if.then10, label %if.end11

if.then10:                                        ; preds = %lor.lhs.false7, %sw.bb3
  store i8 0, ptr %retval, align 1
  br label %return

if.end11:                                         ; preds = %lor.lhs.false7
  br label %sw.bb12

sw.bb12:                                          ; preds = %if.end11, %entry
  %9 = load ptr, ptr %srcptr, align 8
  %incdec.ptr13 = getelementptr inbounds i8, ptr %9, i32 -1
  store ptr %incdec.ptr13, ptr %srcptr, align 8
  %10 = load i8, ptr %incdec.ptr13, align 1
  store i8 %10, ptr %a, align 1
  %conv14 = zext i8 %10 to i32
  %cmp15 = icmp slt i32 %conv14, 128
  br i1 %cmp15, label %if.then19, label %lor.lhs.false16

lor.lhs.false16:                                  ; preds = %sw.bb12
  %11 = load i8, ptr %a, align 1
  %conv17 = zext i8 %11 to i32
  %cmp18 = icmp sgt i32 %conv17, 191
  br i1 %cmp18, label %if.then19, label %if.end20

if.then19:                                        ; preds = %lor.lhs.false16, %sw.bb12
  store i8 0, ptr %retval, align 1
  br label %return

if.end20:                                         ; preds = %lor.lhs.false16
  %12 = load ptr, ptr %source.addr, align 8
  %13 = load i8, ptr %12, align 1
  %conv21 = zext i8 %13 to i32
  switch i32 %conv21, label %sw.default42 [
    i32 224, label %sw.bb22
    i32 237, label %sw.bb27
    i32 240, label %sw.bb32
    i32 244, label %sw.bb37
  ]

sw.bb22:                                          ; preds = %if.end20
  %14 = load i8, ptr %a, align 1
  %conv23 = zext i8 %14 to i32
  %cmp24 = icmp slt i32 %conv23, 160
  br i1 %cmp24, label %if.then25, label %if.end26

if.then25:                                        ; preds = %sw.bb22
  store i8 0, ptr %retval, align 1
  br label %return

if.end26:                                         ; preds = %sw.bb22
  br label %sw.epilog

sw.bb27:                                          ; preds = %if.end20
  %15 = load i8, ptr %a, align 1
  %conv28 = zext i8 %15 to i32
  %cmp29 = icmp sgt i32 %conv28, 159
  br i1 %cmp29, label %if.then30, label %if.end31

if.then30:                                        ; preds = %sw.bb27
  store i8 0, ptr %retval, align 1
  br label %return

if.end31:                                         ; preds = %sw.bb27
  br label %sw.epilog

sw.bb32:                                          ; preds = %if.end20
  %16 = load i8, ptr %a, align 1
  %conv33 = zext i8 %16 to i32
  %cmp34 = icmp slt i32 %conv33, 144
  br i1 %cmp34, label %if.then35, label %if.end36

if.then35:                                        ; preds = %sw.bb32
  store i8 0, ptr %retval, align 1
  br label %return

if.end36:                                         ; preds = %sw.bb32
  br label %sw.epilog

sw.bb37:                                          ; preds = %if.end20
  %17 = load i8, ptr %a, align 1
  %conv38 = zext i8 %17 to i32
  %cmp39 = icmp sgt i32 %conv38, 143
  br i1 %cmp39, label %if.then40, label %if.end41

if.then40:                                        ; preds = %sw.bb37
  store i8 0, ptr %retval, align 1
  br label %return

if.end41:                                         ; preds = %sw.bb37
  br label %sw.epilog

sw.default42:                                     ; preds = %if.end20
  %18 = load i8, ptr %a, align 1
  %conv43 = zext i8 %18 to i32
  %cmp44 = icmp slt i32 %conv43, 128
  br i1 %cmp44, label %if.then45, label %if.end46

if.then45:                                        ; preds = %sw.default42
  store i8 0, ptr %retval, align 1
  br label %return

if.end46:                                         ; preds = %sw.default42
  br label %sw.epilog

sw.epilog:                                        ; preds = %if.end46, %if.end41, %if.end36, %if.end31, %if.end26
  br label %sw.bb47

sw.bb47:                                          ; preds = %sw.epilog, %entry
  %19 = load ptr, ptr %source.addr, align 8
  %20 = load i8, ptr %19, align 1
  %conv48 = zext i8 %20 to i32
  %cmp49 = icmp sge i32 %conv48, 128
  br i1 %cmp49, label %land.lhs.true, label %if.end53

land.lhs.true:                                    ; preds = %sw.bb47
  %21 = load ptr, ptr %source.addr, align 8
  %22 = load i8, ptr %21, align 1
  %conv50 = zext i8 %22 to i32
  %cmp51 = icmp slt i32 %conv50, 194
  br i1 %cmp51, label %if.then52, label %if.end53

if.then52:                                        ; preds = %land.lhs.true
  store i8 0, ptr %retval, align 1
  br label %return

if.end53:                                         ; preds = %land.lhs.true, %sw.bb47
  br label %sw.epilog54

sw.epilog54:                                      ; preds = %if.end53
  %23 = load ptr, ptr %source.addr, align 8
  %24 = load i8, ptr %23, align 1
  %conv55 = zext i8 %24 to i32
  %cmp56 = icmp sgt i32 %conv55, 244
  br i1 %cmp56, label %if.then57, label %if.end58

if.then57:                                        ; preds = %sw.epilog54
  store i8 0, ptr %retval, align 1
  br label %return

if.end58:                                         ; preds = %sw.epilog54
  store i8 1, ptr %retval, align 1
  br label %return

return:                                           ; preds = %if.end58, %if.then57, %if.then52, %if.then45, %if.then40, %if.then35, %if.then30, %if.then25, %if.then19, %if.then10, %if.then, %sw.default
  %25 = load i8, ptr %retval, align 1
  ret i8 %25
}