; Function Attrs: mustprogress nofree norecurse nosync nounwind willreturn memory(argmem: read) uwtable
define internal fastcc noundef zeroext range(i8 0, 2) i8 @_ZN4llvhL11isLegalUTF8EPKhi(ptr noundef readonly captures(none) %source, i32 noundef range(i32 -127, 65537) %length) unnamed_addr #1 {
entry:
  %idx.ext = sext i32 %length to i64
  %add.ptr = getelementptr inbounds i8, ptr %source, i64 %idx.ext
  switch i32 %length, label %return [
    i32 4, label %sw.bb
    i32 3, label %sw.bb3
    i32 2, label %sw.bb12
    i32 1, label %entry.sw.bb47_crit_edge
  ]

entry.sw.bb47_crit_edge:                          ; preds = %entry
  %.pre = load i8, ptr %source, align 1
  br label %sw.bb47

sw.bb:                                            ; preds = %entry
  %incdec.ptr = getelementptr inbounds i8, ptr %add.ptr, i64 -1
  %0 = load i8, ptr %incdec.ptr, align 1
  %or.cond = icmp sgt i8 %0, -65
  br i1 %or.cond, label %return, label %sw.bb3

sw.bb3:                                           ; preds = %sw.bb, %entry
  %srcptr.0 = phi ptr [ %add.ptr, %entry ], [ %incdec.ptr, %sw.bb ]
  %incdec.ptr4 = getelementptr inbounds i8, ptr %srcptr.0, i64 -1
  %1 = load i8, ptr %incdec.ptr4, align 1
  %or.cond1 = icmp sgt i8 %1, -65
  br i1 %or.cond1, label %return, label %sw.bb12

sw.bb12:                                          ; preds = %sw.bb3, %entry
  %srcptr.1 = phi ptr [ %add.ptr, %entry ], [ %incdec.ptr4, %sw.bb3 ]
  %incdec.ptr13 = getelementptr inbounds i8, ptr %srcptr.1, i64 -1
  %2 = load i8, ptr %incdec.ptr13, align 1
  %or.cond2 = icmp sgt i8 %2, -65
  br i1 %or.cond2, label %return, label %if.end20

if.end20:                                         ; preds = %sw.bb12
  %3 = load i8, ptr %source, align 1
  switch i8 %3, label %sw.bb47 [
    i8 -32, label %sw.bb22
    i8 -19, label %sw.bb27
    i8 -16, label %sw.bb32
    i8 -12, label %sw.bb37
  ]

sw.bb22:                                          ; preds = %if.end20
  %cmp24 = icmp samesign ult i8 %2, -96
  br i1 %cmp24, label %return, label %sw.epilog54

sw.bb27:                                          ; preds = %if.end20
  %cmp29 = icmp samesign ugt i8 %2, -97
  br i1 %cmp29, label %return, label %sw.epilog54

sw.bb32:                                          ; preds = %if.end20
  %cmp34 = icmp samesign ult i8 %2, -112
  br i1 %cmp34, label %return, label %sw.epilog54

sw.bb37:                                          ; preds = %if.end20
  %cmp39 = icmp samesign ugt i8 %2, -113
  br i1 %cmp39, label %return, label %sw.epilog54

sw.bb47:                                          ; preds = %entry.sw.bb47_crit_edge, %if.end20
  %4 = phi i8 [ %.pre, %entry.sw.bb47_crit_edge ], [ %3, %if.end20 ]
  %or.cond17 = icmp slt i8 %4, -62
  br i1 %or.cond17, label %return, label %sw.epilog54

sw.epilog54:                                      ; preds = %sw.bb37, %sw.bb32, %sw.bb27, %sw.bb22, %sw.bb47
  %5 = phi i8 [ %4, %sw.bb47 ], [ -12, %sw.bb37 ], [ -16, %sw.bb32 ], [ -19, %sw.bb27 ], [ -32, %sw.bb22 ]
  %cmp56 = icmp ult i8 %5, -11
  %. = zext i1 %cmp56 to i8
  br label %return

return:                                           ; preds = %sw.epilog54, %sw.bb47, %sw.bb37, %sw.bb32, %sw.bb27, %sw.bb22, %sw.bb12, %sw.bb3, %sw.bb, %entry
  %retval.0 = phi i8 [ 0, %entry ], [ 0, %sw.bb ], [ 0, %sw.bb3 ], [ 0, %sw.bb12 ], [ 0, %sw.bb22 ], [ 0, %sw.bb27 ], [ 0, %sw.bb32 ], [ 0, %sw.bb37 ], [ 0, %sw.bb47 ], [ %., %sw.epilog54 ]
  ret i8 %retval.0
}